(lp0
V's
p1
aVcrested
p2
aVbrown
p3
aVspotted
p4
aVwhistling
p5
aVbarren
p6
aVbean
p7
aVwhite-fronted
p8
aVsteamer
p9
aVafrican
p10
aVpygmy
p11
aVblack
p12
aVspot-billed
p13
aVzealand
p14
aVguinea
p15
aVmexican
p16
aVbrazilian
p17
aVpiping
p18
aVwood
p19
aVprairie
p20
aVriver
p21
aVcameroon
p22
aVmountains
p23
aVbush
p24
aVforest
p25
aVbamboo
p26
aVlanka
p27
aVeared
p28
aVrockhopper
p29
aVstorm
p30
aVroyal
p31
aVyellow-nosed
p32
aVgiant
p33
aVfernandez
p34
aVhelena
p35
aVverde
p36
aVdiving
p37
aVsacred
p38
aVwhite
p39
aVbald
p40
aVtome
p41
aVtiger
p42
aVnight
p43
aVpond
p44
aVcattle
p45
aVblue
p46
aVreef
p47
aVpied
p48
aVgeorgia
p49
aVisland
p50
aVyellow-headed
p51
aVserpent
p52
aVhoney
p53
aVsnake
p54
aVimperial
p55
aVchanting
p56
aVbritain
p57
aVmarsh
p58
aVsea
p59
aVfish
p60
aVcrab
p61
aVsolitary
p62
aVthroated
p63
aVthighed
p64
aVfronted
p65
aVwinged
p66
aVnecked
p67
aVfooted
p68
aVbreasted
p69
aVindian
p70
aVcaledonian
p71
aVhowe
p72
aVcrowned
p73
aVislands
p74
aVwattled
p75
aVgolden
p76
aVringed
p77
aVsand
p78
aVamerican
p79
aVeastern
p80
aVblack-backed
p81
aVherring
p82
aVpolar
p83
aVolive
p84
aVbronze-naped
p85
aVturtle
p86
aVcollared
p87
aVemerald
p88
aVground
p89
aVrock
p90
aVwest
p91
aVperuvian
p92
aVgreen
p93
aVfruit
p94
aVmountain
p95
aVlizard
p96
aVlong-tailed
p97
aVbronze
p98
aVbay
p99
aVsooty
p100
aVmasked
p101
aVbarn
p102
aVgrass
p103
aVscops
p104
aVscreech
p105
aVwhite-faced
p106
aVhorned
p107
aVfishing
p108
aVgrey
p109
aVbarred
p110
aVsaw-whet
p111
aVireland
p112
aVsumba
p113
aVrican
p114
aVdusky
p115
aVspine-tailed
p116
aVantillean
p117
aVgrosso
p118
aVpalm
p119
aVswallow-tailed
p120
aVpo
p121
aVmarta
p122
aVparadise
p123
aVdwarf
p124
aVsilvery
p125
aVcarmine
p126
aVred-billed
p127
aVyellow-billed
p128
aVthree-toed
p129
aVslaty
p130
aVpaulo
p131
aVwater
p132
aVholland
p133
aVjewel
p134
aVblack-headed
p135
aVscrub
p136
aVyellow
p137
aVpenduline
p138
aVhouse
p139
aVstriped
p140
aVreed
p141
aVleaf
p142
aVscimitar
p143
aVnecklaced
p144
aVglossy
p145
aVal-kuri
p146
aVgrey-headed
p147
aVtree
p148
aVbuffalo
p149
a.