(lp0
Vtinamou
p1
aVnothura
p2
aVostrich
p3
aVrhea
p4
aVcassowary
p5
aVkiwi
p6
aVscreamer
p7
aVgoose
p8
aVduck
p9
aVswan
p10
aVsheldgoose
p11
aVshelduck
p12
aVteal
p13
aVwigeon
p14
aVshoveler
p15
aVpintail
p16
aVpochard
p17
aVscaup
p18
aVeider
p19
aVscoter
p20
aVgoldeneye
p21
aVmerganser
p22
aVbrushturkey
p23
aVmegapode
p24
aVscrubfowl
p25
aVchachalaca
p26
aVguan
p27
aVcurassow
p28
aVguineafowl
p29
aVpartridge
p30
aVquail
p31
aVbobwhite
p32
aVturkey
p33
aVgrouse
p34
aVcapercaillie
p35
aVsage-grouse
p36
aVptarmigan
p37
aVsnowcock
p38
aVfrancolin
p39
aVspurfowl
p40
aVpheasant
p41
aVtragopan
p42
aVmonal
p43
aVjunglefowl
p44
aVfireback
p45
aVpeacock-pheasant
p46
aVargus
p47
aVpeafowl
p48
aVloon
p49
aVpenguin
p50
aValbatross
p51
aVfulmar
p52
aVpetrel
p53
aVprion
p54
aVshearwater
p55
aVgrebe
p56
aVflamingo
p57
aVtropicbird
p58
aVstork
p59
aVopenbill
p60
aVadjutant
p61
aVibis
p62
aVspoonbill
p63
aVbittern
p64
aVheron
p65
aVegret
p66
aVpelican
p67
aVfrigatebird
p68
aVgannet
p69
aVbooby
p70
aVcormorant
p71
aVshag
p72
aVdarter
p73
aVvulture
p74
aVcondor
p75
aVosprey
p76
aVkite
p77
aVharrier-hawk
p78
aVbuzzard
p79
aVcuckoo-hawk
p80
aVbaza
p81
aVeagle
p82
aVhawk
p83
aVhawk-eagle
p84
aVgoshawk
p85
aVsparrowhawk
p86
aVharrier
p87
aVbuzzard-eagle
p88
aVcaracara
p89
aVfalcon
p90
aVfalconet
p91
aVkestrel
p92
aVhobby
p93
aVbustard
p94
aVkorhaan
p95
aVflorican
p96
aVmesite
p97
aVseriema
p98
aVrail
p99
aVflufftail
p100
aVfinfoot
p101
aVcrake
p102
aVbush-hen
p103
aVwaterhen
p104
aVswamphen
p105
aVgallinule
p106
aVwoodhen
p107
aVmoorhen
p108
aVnativehen
p109
aVcoot
p110
aVtrumpeter
p111
aVcrane
p112
aVbuttonquail
p113
aVstone-curlew
p114
aVthick-knee
p115
aVsheathbill
p116
aVplover
p117
aVoystercatcher
p118
aVstilt
p119
aVavocet
p120
aVlapwing
p121
aVdotterel
p122
aVpainted-snipe
p123
aVjacana
p124
aVseedsnipe
p125
aVwoodcock
p126
aVsnipe
p127
aVdowitcher
p128
aVgodwit
p129
aVcurlew
p130
aVsandpiper
p131
aVredshank
p132
aVgreenshank
p133
aVyellowlegs
p134
aVtattler
p135
aVturnstone
p136
aVknot
p137
aVstint
p138
aVphalarope
p139
aVcourser
p140
aVpratincole
p141
aVnoddy
p142
aVtern
p143
aVskimmer
p144
aVgull
p145
aVkittiwake
p146
aVskua
p147
aVjaeger
p148
aVauk
p149
aVmurre
p150
aVguillemot
p151
aVmurrelet
p152
aVauklet
p153
aVpuffin
p154
aVsandgrouse
p155
aVdove
p156
aVpigeon
p157
aVcuckoo-dove
p158
aVbronzewing
p159
aVquail-dove
p160
aVbleeding-heart
p161
aVsolitaire
p162
aVturaco
p163
aVgo-away-bird
p164
aVplantain-eater
p165
aVcuckoo
p166
aVani
p167
aVroadrunner
p168
aVcoucal
p169
aVcoua
p170
aVmalkoha
p171
aVkoel
p172
aVdrongo-cuckoo
p173
aVhawk-cuckoo
p174
aVowl
p175
aVeagle-owl
p176
aVhawk-owl
p177
aVowlet
p178
aVboobook
p179
aVfrogmouth
p180
aVpotoo
p181
aVnightjar
p182
aVnighthawk
p183
aVpoorwill
p184
aVwhip-poor-will
p185
aVowlet-nightjar
p186
aVtreeswift
p187
aVswift
p188
aVswiftlet
p189
aVspinetail
p190
aVneedletail
p191
aVhermit
p192
aVsicklebill
p193
aVbarbthroat
p194
aVhummingbird
p195
aVlancebill
p196
aVsabrewing
p197
aVjacobin
p198
aVvioletear
p199
aVmango
p200
aVawlbill
p201
aVtopaz
p202
aVcarib
p203
aVplovercrest
p204
aVcoquette
p205
aVthorntail
p206
aVstreamertail
p207
aVsapphire
p208
aVemerald
p209
aVwoodnymph
p210
aVgoldenthroat
p211
aVblossomcrown
p212
aVplumeleteer
p213
aVmountaingem
p214
aVpiedtail
p215
aVruby
p216
aVbrilliant
p217
aVhillstar
p218
aVcoronet
p219
aVsunbeam
p220
aVvelvetbreast
p221
aVinca
p222
aVstarfrontlet
p223
aVsapphirewing
p224
aVfirecrown
p225
aVsunangel
p226
aVpuffleg
p227
aVwhitetip
p228
aVracket-tail
p229
aVtrainbearer
p230
aVcomet
p231
aVthornbill
p232
aVmountaineer
p233
aVhelmetcrest
p234
aVmetaltail
p235
aVavocetbill
p236
aVsylph
p237
aVvisorbearer
p238
aVfairy
p239
aVsungem
p240
aVspatuletail
p241
aVstarthroat
p242
aVsheartail
p243
aVwoodstar
p244
aVmousebird
p245
aVquetzal
p246
aVtrogon
p247
aVroller
p248
aVdollarbird
p249
aVkingfisher
p250
aVkookaburra
p251
aVtody
p252
aVmotmot
p253
aVbee-eater
p254
aVhoopoe
p255
aVscimitarbill
p256
aVhornbill
p257
aVjacamar
p258
aVpuffbird
p259
aVmonklet
p260
aVnunlet
p261
aVnunbird
p262
aVbarbet
p263
aVtoucanet
p264
aVaracari
p265
aVtoucan
p266
aVtinkerbird
p267
aVhoneybird
p268
aVhoneyguide
p269
aVwryneck
p270
aVpiculet
p271
aVpiclet
p272
aVwoodpecker
p273
aVsapsucker
p274
aVflicker
p275
aVyellownape
p276
aVflameback
p277
aVbroadbill
p278
aVasity
p279
aVsunbird-asity
p280
aVpitta
p281
aVmanakin
p282
aVschiffornis
p283
aVplantcutter
p284
aVfruiteater
p285
aVcotinga
p286
aVcock-of-the-rock
p287
aVbellbird
p288
aVumbrellabird
p289
aVelaenia
p290
aVflycatcher
p291
aVtyrant
p292
aVtody-flycatcher
p293
aVspadebill
p294
aVphoebe
p295
aVmonjita
p296
aVkiskadee
p297
aVkingbird
p298
aVantwren
p299
aVantshrike
p300
aVantbird
p301
aVbare-eye
p302
aVgnateater
p303
aVgallito
p304
aVtapaculo
p305
aVbristlefront
p306
aVantthrush
p307
aVantpitta
p308
aVminer
p309
aVcachalote
p310
aVcinclodes
p311
aVcanastero
p312
aVhornero
p313
aVrayadito
p314
aVfoliage-gleaner
p315
aVxenops
p316
aVwoodcreeper
p317
aVscythebill
p318
aVlyrebird
p319
aVcatbird
p320
aVbowerbird
p321
aVscrubbird
p322
aVtreecreeper
p323
aVfairywren
p324
aVgrasswren
p325
aVhoneyeater
p326
aVfriarbird
p327
aVwattlebird
p328
aVspinebill
p329
aVchat
p330
aVbristlebird
p331
aVpardalote
p332
aVscrubwren
p333
aVgerygone
p334
aVwhiteface
p335
aVbabbler
p336
aVlogrunner
p337
aVsatinbird
p338
aVlongbill
p339
aVberrypecker
p340
aVwhipbird
p341
aVwedgebill
p342
aVquail-thrush
p343
aVbatis
p344
aVwattle-eye
p345
aVhelmetshrike
p346
aVtchagra
p347
aVboatbill
p348
aVvanga
p349
aVbutcherbird
p350
aVmagpie
p351
aVcurrawong
p352
aVwoodswallow
p353
aViora
p354
aVbristlehead
p355
aVcuckooshrike
p356
aVtriller
p357
aVminivet
p358
aVsittella
p359
aVshrike-tit
p360
aVwhistler
p361
aVshrike
p362
aVfiscal
p363
aVpeppershrike
p364
aVvireo
p365
aVoriole
p366
aVshrike-thrush
p367
aVdrongo
p368
aVfantail
p369
aVwagtail
p370
aVmonarch
p371
aVelepaio
p372
aVjay
p373
aVnutcracker
p374
aVmagpie-jay
p375
aVchough
p376
aVjackdaw
p377
aVcrow
p378
aVraven
p379
aVastrapia
p380
aVbird-of-paradise
p381
aVriflebird
p382
aVwinter
p383
aVrobin
p384
aVscrub-robin
p385
aVpicathartes
p386
aVwaxwing
p387
aVchickadee
p388
aVtit
p389
aVtitmouse
p390
aVswallow
p391
aVmartin
p392
aVlark
p393
aVhoopoe-lark
p394
aVcisticola
p395
aVprinia
p396
aVapalis
p397
aVcamaroptera
p398
aVtailorbird
p399
aVbulbul
p400
aVgreenbul
p401
aVbernieria
p402
aVbristlebill
p403
aVgrassbird
p404
aVsonglark
p405
aVwarbler
p406
aVchiffchaff
p407
aVeremomela
p408
aVcrombec
p409
aVilladopsis
p410
aVmesia
p411
aVminla
p412
aVfulvetta
p413
aVsibia
p414
aVyuhina
p415
aVreedling
p416
aVparrotbill
p417
aVrockjumper
p418
aVwhite-eye
p419
aVblackeye
p420
aVfairy-bluebird
p421
aVkinglet
p422
aVwren
p423
aVdonacobius
p424
aVgnatcatcher
p425
aVgnatwren
p426
aVnuthatch
p427
aVcreeper
p428
aVmockingbird
p429
aVthrasher
p430
aVtrembler
p431
aVmyna
p432
aVstarling
p433
aVoxpecker
p434
aVbluebird
p435
aVthrush
p436
aVouzel
p437
aVblackbird
p438
aVshortwing
p439
aVcochoa
p440
aValethe
p441
aVmagpie-robin
p442
aVredstart
p443
aVforktail
p444
aVstonechat
p445
aVbushchat
p446
aVwheatear
p447
aVniltava
p448
aVnightingale
p449
aVdipper
p450
aVleafbird
p451
aVflowerpecker
p452
aVsunbird
p453
aVsugarbird
p454
aVsparrow
p455
aVpetronia
p456
aVsnowfinch
p457
aVweaver
p458
aVquelea
p459
aVpytilia
p460
aVtwinspot
p461
aVfinch
p462
aVbluebill
p463
aVfirefinch
p464
aVgrenadier
p465
aVwaxbill
p466
aVparrotfinch
p467
aVmunia
p468
aVwhydah
p469
aVlongclaw
p470
aVpipit
p471
aVaccentor
p472
aVchaffinch
p473
aVsiskin
p474
aVgreenfinch
p475
aVgoldfinch
p476
aVredpoll
p477
aVgrosbeak
p478
aVcrossbill
p479
aVbullfinch
p480
aVparula
p481
aVwaterthrush
p482
aVyellowthroat
p483
aVoropendola
p484
aVcacique
p485
aVgrackle
p486
aVcowbird
p487
aVmeadowlark
p488
aVlongspur
p489
aVbunting
p490
aVjunco
p491
aVseedeater
p492
aVgrassquit
p493
aVtowhee
p494
aVcardinal
p495
aVtanager
p496
aVhoneycreeper
p497
aVconebill
p498
aVeuphonia
p499
aVchlorophonia
p500
aVsaltator
p501
aVchicken
p502
aVmonal-partridge
p503
aVtakah\u0113
p504
aVjewelfront
p505
aVtyrannulet
p506
aVpewee
p507
aVbushshrike
p508
aVlaughingthrush
p509
aVwidowbird
p510
aVrosefinch
p511
a.